Archive member included because of file (symbol)

/usr/lib/libc_nonshared.a(elf-init.oS)
                              /usr/lib/gcc/i486-linux-gnu/4.4.3/../../../../lib/crt1.o (__libc_csu_fini)

Allocating common symbols
Common symbol       size              file

identifier_end      0x4               c_main.o
identifier_eq       0x4               c_main.o
identifier_rolequal
                    0x4               c_main.o
identifier_twopoints
                    0x4               c_main.o
identifier_unsigned
                    0x4               c_main.o
identifier_include  0x4               c_main.o
identifier_not      0x4               c_main.o
reserved_words      0x4               c_main.o
c_upper             0x100             ../../common/xctype.o
identifier_leftb    0x4               c_main.o
imports             0x800             c_main.o
c_type              0x100             ../../common/xctype.o
identifier_type     0x4               c_main.o
identifier_rightb   0x4               c_main.o
identifier_lte      0x4               c_main.o
identifier_function
                    0x4               c_main.o
identifier_bxor     0x4               c_main.o
identifier_multiply
                    0x4               c_main.o
identifier_equal    0x4               c_main.o
identifier_word     0x4               c_main.o
identifier_struct   0x4               c_main.o
identifier_divequal
                    0x4               c_main.o
dcb                 0xb8              dcbw.o
identifier_from     0x4               c_main.o
code                0x4               c_code.o
globaldata          0x4               segment.o
identifier_band     0x4               c_main.o
identifier_minusequal
                    0x4               c_main.o
identifier_string   0x4               c_main.o
global              0x20              varspace.o
identifier_onexit   0x4               c_main.o
identifier_debug    0x4               c_main.o
identifier_ne       0x4               c_main.o
identifier_divide   0x4               c_main.o
identifier_xor      0x4               c_main.o
imports_aux         0x800             c_main.o
identifier_dword    0x4               c_main.o
identifier_point    0x4               c_main.o
c_lower             0x100             ../../common/xctype.o
identifier_ror      0x4               c_main.o
identifier_plusplus
                    0x4               c_main.o
identifier_float    0x4               c_main.o
identifier_gte      0x4               c_main.o
identifier_error    0x4               c_main.o
identifier_minusminus
                    0x4               c_main.o
identifier_rightp   0x4               c_main.o
identifier_short    0x4               c_main.o
identifier_multequal
                    0x4               c_main.o
identifier_char     0x4               c_main.o
identifier_for      0x4               c_main.o
identifier_const    0x4               c_main.o
token_prev          0x14              token.o
identifier_rorequal
                    0x4               c_main.o
identifier_clone    0x4               c_main.o
identifier_jmp      0x4               c_main.o
identifier_loop     0x4               c_main.o
identifier_begin    0x4               c_main.o
identifier_local    0x4               c_main.o
identifier_question
                    0x4               c_main.o
errtable            0x50              error.o
identifier_sizeof   0x4               c_main.o
identifier_bor      0x4               c_main.o
token               0x14              token.o
identifier_bnot     0x4               c_main.o
identifier_comma    0x4               c_main.o
identifier_call     0x4               c_main.o
identifier_return   0x4               c_main.o
identifier_plusequal
                    0x4               c_main.o
token_saved         0x14              token.o
identifier_elseif   0x4               c_main.o
identifier_repeat   0x4               c_main.o
identifier_exit     0x4               c_main.o
identifier_plus     0x4               c_main.o
identifier_semicolon
                    0x4               c_main.o
identifier_leftp    0x4               c_main.o
identifier_bandoffset
                    0x4               c_main.o
identifier_while    0x4               c_main.o
identifier_step     0x4               c_main.o
identifier_continue
                    0x4               c_main.o
identifier_offset   0x4               c_main.o
identifier_until    0x4               c_main.o
identifier_signed   0x4               c_main.o
localdata           0x4               segment.o
identifier_dup      0x4               c_main.o
identifier_to       0x4               c_main.o
identifier_minus    0x4               c_main.o
mnemonics_sorted    0x800             ../../common/debug.o
identifier_frame    0x4               c_main.o
identifier_yield    0x4               c_main.o
identifier_private  0x4               c_main.o
identifier_default  0x4               c_main.o
proc                0x4               c_code.o
identifier_public   0x4               c_main.o
identifier_mod      0x4               c_main.o
identifier_mouse    0x4               c_main.o
identifier_switch   0x4               c_main.o
identifier_rol      0x4               c_main.o
identifier_onerror  0x4               c_main.o
local               0x20              varspace.o
identifier_break    0x4               c_main.o
identifier_andequal
                    0x4               c_main.o
identifier_byte     0x4               c_main.o
identifier_resume   0x4               c_main.o
identifier_gt       0x4               c_main.o
files               0x104000          token.o
identifier_or       0x4               c_main.o
identifier_process  0x4               c_main.o
identifier_declare  0x4               c_main.o
identifier_xorequal
                    0x4               c_main.o
identifier_if       0x4               c_main.o
langinfo            0x40              main.o
identifier_pointer  0x4               c_main.o
identifier_on       0x4               c_main.o
identifier_else     0x4               c_main.o
identifier_and      0x4               c_main.o
identifier_int      0x4               c_main.o
identifier_global   0x4               c_main.o
identifier_orequal  0x4               c_main.o
identifier_colon    0x4               c_main.o
identifier_lt       0x4               c_main.o
identifier_program  0x4               c_main.o
identifier_stm_next
                    0x4               c_main.o
identifier_import   0x4               c_main.o
identifier_modequal
                    0x4               c_main.o
identifier_case     0x4               c_main.o

Discarded input sections

 .note.GNU-stack
                0x0000000000000000        0x0 /usr/lib/gcc/i486-linux-gnu/4.4.3/../../../../lib/crt1.o
 .gnu_debuglink
                0x0000000000000000        0xc /usr/lib/gcc/i486-linux-gnu/4.4.3/../../../../lib/crt1.o
 .note.GNU-stack
                0x0000000000000000        0x0 /usr/lib/gcc/i486-linux-gnu/4.4.3/../../../../lib/crti.o
 .gnu_debuglink
                0x0000000000000000        0xc /usr/lib/gcc/i486-linux-gnu/4.4.3/../../../../lib/crti.o
 .note.GNU-stack
                0x0000000000000000        0x0 /usr/lib/gcc/i486-linux-gnu/4.4.3/crtbegin.o
 .note.GNU-stack
                0x0000000000000000        0x0 c_code.o
 .note.GNU-stack
                0x0000000000000000        0x0 c_data.o
 .note.GNU-stack
                0x0000000000000000        0x0 c_debug.o
 .note.GNU-stack
                0x0000000000000000        0x0 c_main.o
 .note.GNU-stack
                0x0000000000000000        0x0 codeblock.o
 .note.GNU-stack
                0x0000000000000000        0x0 constants.o
 .note.GNU-stack
                0x0000000000000000        0x0 dcbw.o
 .note.GNU-stack
                0x0000000000000000        0x0 error.o
 .note.GNU-stack
                0x0000000000000000        0x0 identifier.o
 .note.GNU-stack
                0x0000000000000000        0x0 main.o
 .note.GNU-stack
                0x0000000000000000        0x0 main_core.o
 .note.GNU-stack
                0x0000000000000000        0x0 procedure.o
 .note.GNU-stack
                0x0000000000000000        0x0 segment.o
 .note.GNU-stack
                0x0000000000000000        0x0 strings.o
 .note.GNU-stack
                0x0000000000000000        0x0 sysstub.o
 .note.GNU-stack
                0x0000000000000000        0x0 token.o
 .note.GNU-stack
                0x0000000000000000        0x0 typedef.o
 .note.GNU-stack
                0x0000000000000000        0x0 varspace.o
 .note.GNU-stack
                0x0000000000000000        0x0 ../../common/debug.o
 .note.GNU-stack
                0x0000000000000000        0x0 ../../common/files.o
 .note.GNU-stack
                0x0000000000000000        0x0 ../../common/xctype.o
 .group         0x0000000000000000        0x8 /usr/lib/libc_nonshared.a(elf-init.oS)
 .note.GNU-stack
                0x0000000000000000        0x0 /usr/lib/libc_nonshared.a(elf-init.oS)
 .note.GNU-stack
                0x0000000000000000        0x0 /usr/lib/gcc/i486-linux-gnu/4.4.3/crtend.o
 .note.GNU-stack
                0x0000000000000000        0x0 /usr/lib/gcc/i486-linux-gnu/4.4.3/../../../../lib/crtn.o
 .gnu_debuglink
                0x0000000000000000        0xc /usr/lib/gcc/i486-linux-gnu/4.4.3/../../../../lib/crtn.o

Memory Configuration

Name             Origin             Length             Attributes
*default*        0x0000000000000000 0xffffffffffffffff

Linker script and memory map

LOAD /usr/lib/gcc/i486-linux-gnu/4.4.3/../../../../lib/crt1.o
LOAD /usr/lib/gcc/i486-linux-gnu/4.4.3/../../../../lib/crti.o
LOAD /usr/lib/gcc/i486-linux-gnu/4.4.3/crtbegin.o
LOAD c_code.o
LOAD c_data.o
LOAD c_debug.o
LOAD c_main.o
LOAD codeblock.o
LOAD constants.o
LOAD dcbw.o
LOAD error.o
LOAD identifier.o
LOAD main.o
LOAD main_core.o
LOAD procedure.o
LOAD segment.o
LOAD strings.o
LOAD sysstub.o
LOAD token.o
LOAD typedef.o
LOAD varspace.o
LOAD ../../common/debug.o
LOAD ../../common/files.o
LOAD ../../common/xctype.o
LOAD /usr/lib/libz.so
LOAD /usr/lib/libc.so
START GROUP
LOAD /lib/libc.so.6
LOAD /usr/lib/libc_nonshared.a
LOAD /lib/ld-linux.so.2
END GROUP
LOAD /usr/lib/libm.so
LOAD /usr/lib/gcc/i486-linux-gnu/4.4.3/libgcc.a
LOAD /usr/lib/gcc/i486-linux-gnu/4.4.3/libgcc_s.so
LOAD /usr/lib/libc.so
START GROUP
LOAD /lib/libc.so.6
LOAD /usr/lib/libc_nonshared.a
LOAD /lib/ld-linux.so.2
END GROUP
LOAD /usr/lib/gcc/i486-linux-gnu/4.4.3/libgcc.a
LOAD /usr/lib/gcc/i486-linux-gnu/4.4.3/libgcc_s.so
LOAD /usr/lib/gcc/i486-linux-gnu/4.4.3/crtend.o
LOAD /usr/lib/gcc/i486-linux-gnu/4.4.3/../../../../lib/crtn.o
                0x0000000008048000                PROVIDE (__executable_start, 0x8048000)
                0x0000000008048134                . = (0x8048000 + SIZEOF_HEADERS)

.interp         0x0000000008048134       0x13
 *(.interp)
 .interp        0x0000000008048134       0x13 /usr/lib/gcc/i486-linux-gnu/4.4.3/../../../../lib/crt1.o

.note.ABI-tag   0x0000000008048148       0x20
 .note.ABI-tag  0x0000000008048148       0x20 /usr/lib/gcc/i486-linux-gnu/4.4.3/../../../../lib/crt1.o

.note.gnu.build-id
                0x0000000008048168       0x24
 *(.note.gnu.build-id)
 .note.gnu.build-id
                0x0000000008048168       0x24 /usr/lib/gcc/i486-linux-gnu/4.4.3/../../../../lib/crt1.o

.hash           0x000000000804818c      0x190
 *(.hash)
 .hash          0x000000000804818c      0x190 /usr/lib/gcc/i486-linux-gnu/4.4.3/../../../../lib/crt1.o

.gnu.hash       0x000000000804831c       0x24
 *(.gnu.hash)
 .gnu.hash      0x000000000804831c       0x24 /usr/lib/gcc/i486-linux-gnu/4.4.3/../../../../lib/crt1.o

.dynsym         0x0000000008048340      0x3d0
 *(.dynsym)
 .dynsym        0x0000000008048340      0x3d0 /usr/lib/gcc/i486-linux-gnu/4.4.3/../../../../lib/crt1.o

.dynstr         0x0000000008048710      0x248
 *(.dynstr)
 .dynstr        0x0000000008048710      0x248 /usr/lib/gcc/i486-linux-gnu/4.4.3/../../../../lib/crt1.o

.gnu.version    0x0000000008048958       0x7a
 *(.gnu.version)
 .gnu.version   0x0000000008048958       0x7a /usr/lib/gcc/i486-linux-gnu/4.4.3/../../../../lib/crt1.o

.gnu.version_d  0x00000000080489d4        0x0 load address 0x00000000080489d2
 *(.gnu.version_d)
 .gnu.version_d
                0x0000000000000000        0x0 /usr/lib/gcc/i486-linux-gnu/4.4.3/../../../../lib/crt1.o

.gnu.version_r  0x00000000080489d4       0x50
 *(.gnu.version_r)
 .gnu.version_r
                0x00000000080489d4       0x50 /usr/lib/gcc/i486-linux-gnu/4.4.3/../../../../lib/crt1.o

.rel.dyn        0x0000000008048a24       0x10
 *(.rel.init)
 *(.rel.text .rel.text.* .rel.gnu.linkonce.t.*)
 .rel.text      0x0000000000000000        0x0 /usr/lib/gcc/i486-linux-gnu/4.4.3/../../../../lib/crt1.o
 *(.rel.fini)
 *(.rel.rodata .rel.rodata.* .rel.gnu.linkonce.r.*)
 *(.rel.data.rel.ro* .rel.gnu.linkonce.d.rel.ro.*)
 *(.rel.data .rel.data.* .rel.gnu.linkonce.d.*)
 *(.rel.tdata .rel.tdata.* .rel.gnu.linkonce.td.*)
 *(.rel.tbss .rel.tbss.* .rel.gnu.linkonce.tb.*)
 *(.rel.ctors)
 *(.rel.dtors)
 *(.rel.got)
 .rel.got       0x0000000008048a24        0x8 /usr/lib/gcc/i486-linux-gnu/4.4.3/../../../../lib/crt1.o
 *(.rel.bss .rel.bss.* .rel.gnu.linkonce.b.*)
 .rel.bss       0x0000000008048a2c        0x8 /usr/lib/gcc/i486-linux-gnu/4.4.3/../../../../lib/crt1.o
 *(.rel.ifunc)

.rel.plt        0x0000000008048a34      0x1c8
 *(.rel.plt)
 .rel.plt       0x0000000008048a34      0x1c8 /usr/lib/gcc/i486-linux-gnu/4.4.3/../../../../lib/crt1.o
                0x0000000008048bfc                PROVIDE (__rel_iplt_start, .)
 *(.rel.iplt)
 .rel.iplt      0x0000000000000000        0x0 /usr/lib/gcc/i486-linux-gnu/4.4.3/../../../../lib/crt1.o
                0x0000000008048bfc                PROVIDE (__rel_iplt_end, .)

.init           0x0000000008048bfc       0x30
 *(.init)
 .init          0x0000000008048bfc       0x22 /usr/lib/gcc/i486-linux-gnu/4.4.3/../../../../lib/crti.o
                0x0000000008048bfc                _init
 .init          0x0000000008048c1e        0x5 /usr/lib/gcc/i486-linux-gnu/4.4.3/crtbegin.o
 .init          0x0000000008048c23        0x5 /usr/lib/gcc/i486-linux-gnu/4.4.3/crtend.o
 .init          0x0000000008048c28        0x4 /usr/lib/gcc/i486-linux-gnu/4.4.3/../../../../lib/crtn.o

.plt            0x0000000008048c2c      0x3a0
 *(.plt)
 .plt           0x0000000008048c2c      0x3a0 /usr/lib/gcc/i486-linux-gnu/4.4.3/../../../../lib/crt1.o
                0x0000000008048c3c                abort@@GLIBC_2.0
                0x0000000008048c4c                srand@@GLIBC_2.0
                0x0000000008048c5c                gzeof
                0x0000000008048c6c                __fprintf_chk@@GLIBC_2.3.4
                0x0000000008048c8c                realloc@@GLIBC_2.0
                0x0000000008048c9c                rewind@@GLIBC_2.0
                0x0000000008048cac                localtime@@GLIBC_2.0
                0x0000000008048cbc                gzopen
                0x0000000008048ccc                __printf_chk@@GLIBC_2.3.4
                0x0000000008048cdc                gzclose
                0x0000000008048cec                strtod@@GLIBC_2.0
                0x0000000008048cfc                strchr@@GLIBC_2.0
                0x0000000008048d0c                getenv@@GLIBC_2.0
                0x0000000008048d1c                calloc@@GLIBC_2.0
                0x0000000008048d2c                strncpy@@GLIBC_2.0
                0x0000000008048d3c                gzrewind
                0x0000000008048d4c                fgets@@GLIBC_2.0
                0x0000000008048d5c                rename@@GLIBC_2.0
                0x0000000008048d6c                __libc_start_main@@GLIBC_2.0
                0x0000000008048d7c                __memcpy_chk@@GLIBC_2.3.4
                0x0000000008048d8c                strrchr@@GLIBC_2.0
                0x0000000008048d9c                __assert_fail@@GLIBC_2.0
                0x0000000008048dac                gzseek
                0x0000000008048dbc                __strcat_chk@@GLIBC_2.3.4
                0x0000000008048dcc                strtol@@GLIBC_2.0
                0x0000000008048ddc                free@@GLIBC_2.0
                0x0000000008048dec                gzwrite
                0x0000000008048dfc                fseek@@GLIBC_2.0
                0x0000000008048e0c                __vsprintf_chk@@GLIBC_2.3.4
                0x0000000008048e1c                fclose@@GLIBC_2.1
                0x0000000008048e2c                memcpy@@GLIBC_2.0
                0x0000000008048e3c                strlen@@GLIBC_2.0
                0x0000000008048e4c                fopen@@GLIBC_2.1
                0x0000000008048e5c                feof@@GLIBC_2.0
                0x0000000008048e6c                strcpy@@GLIBC_2.0
                0x0000000008048e7c                ftell@@GLIBC_2.0
                0x0000000008048e8c                __strcpy_chk@@GLIBC_2.3.4
                0x0000000008048e9c                fwrite@@GLIBC_2.0
                0x0000000008048eac                time@@GLIBC_2.0
                0x0000000008048ebc                remove@@GLIBC_2.0
                0x0000000008048ecc                malloc@@GLIBC_2.0
                0x0000000008048edc                __stack_chk_fail@@GLIBC_2.4
                0x0000000008048eec                strtok@@GLIBC_2.0
                0x0000000008048efc                gztell
                0x0000000008048f0c                memmove@@GLIBC_2.0
                0x0000000008048f1c                strcat@@GLIBC_2.0
                0x0000000008048f2c                getcwd@@GLIBC_2.0
                0x0000000008048f3c                gzgets
                0x0000000008048f4c                __sprintf_chk@@GLIBC_2.3.4
                0x0000000008048f5c                strncmp@@GLIBC_2.0
                0x0000000008048f6c                gzread
                0x0000000008048f7c                fread@@GLIBC_2.0
                0x0000000008048f8c                strftime@@GLIBC_2.0
                0x0000000008048f9c                strcmp@@GLIBC_2.0
                0x0000000008048fac                __strdup@@GLIBC_2.0
                0x0000000008048fbc                exit@@GLIBC_2.0
 *(.iplt)
 .iplt          0x0000000000000000        0x0 /usr/lib/gcc/i486-linux-gnu/4.4.3/../../../../lib/crt1.o

.text           0x0000000008048fd0    0x1e32c
 *(.text.unlikely .text.*_unlikely)
 *(.text .stub .text.* .gnu.linkonce.t.*)
 .text          0x0000000008048fd0       0x24 /usr/lib/gcc/i486-linux-gnu/4.4.3/../../../../lib/crt1.o
                0x0000000008048fd0                _start
 .text          0x0000000008048ff4        0x0 /usr/lib/gcc/i486-linux-gnu/4.4.3/../../../../lib/crti.o
 *fill*         0x0000000008048ff4        0xc 90909090
 .text          0x0000000008049000       0x83 /usr/lib/gcc/i486-linux-gnu/4.4.3/crtbegin.o
 *fill*         0x0000000008049083        0xd 90909090
 .text          0x0000000008049090     0xb644 c_code.o
                0x0000000008049090                compile_sentence_end
                0x00000000080490e0                basetype_describe
                0x0000000008049480                mntype
                0x0000000008049540                convert_result_type
                0x000000000804a2e0                compile_sizeof
                0x000000000804acd0                compile_value
                0x000000000804b6c0                compile_factor
                0x000000000804c4a0                compile_operand
                0x000000000804c960                compile_operation
                0x000000000804d210                compile_rotation
                0x000000000804d490                compile_comparison_1
                0x000000000804d9f0                compile_comparison_2
                0x000000000804dda0                compile_bitwise_and
                0x000000000804df90                compile_bitwise_xor
                0x000000000804e180                compile_bitwise_or
                0x000000000804e370                compile_logical_and
                0x000000000804e5e0                compile_logical_xor
                0x000000000804e7e0                compile_logical_or
                0x000000000804eae0                compile_ternarycond
                0x000000000804f050                compile_subexpresion
                0x0000000008050240                compile_expresion
                0x0000000008050530                compile_sublvalue
                0x0000000008050d10                compile_paramlist
                0x0000000008050ea0                compile_bestproc
                0x0000000008051840                compile_block
                0x0000000008053b90                compile_cast
 *fill*         0x00000000080546d4        0xc 90909090
 .text          0x00000000080546e0     0x2088 c_data.o
                0x00000000080546e0                compile_array_data
                0x0000000008054b30                compile_struct_data
                0x00000000080550e0                compile_varspace
 *fill*         0x0000000008056768        0x8 90909090
 .text          0x0000000008056770      0x1f5 c_debug.o
                0x0000000008056770                codeblock_dump
 *fill*         0x0000000008056965        0xb 90909090
 .text          0x0000000008056970     0x2ea3 c_main.o
                0x0000000008056ac0                compile_warning
                0x0000000008056c00                compile_error
                0x0000000008056d30                compile_process
                0x00000000080581c0                compile_constants
                0x0000000008058390                compile_type
                0x0000000008058490                compile_init
                0x00000000080591d0                compile_import
                0x0000000008059210                compile_program
                0x00000000080596d0                import_files
 *fill*         0x0000000008059813        0xd 90909090
 .text          0x0000000008059820      0xacc codeblock.o
                0x0000000008059820                codeblock_loop_add
                0x0000000008059840                codeblock_label_set
                0x0000000008059860                codeblock_label_get
                0x0000000008059880                codeblock_label_get_id_by_name
                0x00000000080598d0                codeblock_pos
                0x00000000080598f0                codeblock_setpos
                0x0000000008059970                codeblock_add
                0x0000000008059ce0                codeblock_stepback
                0x0000000008059d30                codeblock_label_add
                0x0000000008059e60                codeblock_loop_end
                0x0000000008059eb0                codeblock_loop_start
                0x0000000008059f00                codeblock_add_block
                0x0000000008059fb0                codeblock_init
                0x000000000805a0a0                codeblock_postprocess
 *fill*         0x000000000805a2ec        0x4 90909090
 .text          0x000000000805a2f0      0x345 constants.o
                0x000000000805a2f0                constants_search
                0x000000000805a340                constants_dump
                0x000000000805a3d0                constants_alloc
                0x000000000805a430                constants_add
                0x000000000805a600                constants_init
 *fill*         0x000000000805a635        0xb 90909090
 .text          0x000000000805a640     0x1731 dcbw.o
                0x000000000805a710                dcb_prepare_type
                0x000000000805a760                dcb_settype
                0x000000000805a7b0                dcb_add_file
                0x000000000805aa00                dcb_save
 *fill*         0x000000000805bd71        0xf 90909090
 .text          0x000000000805bd80      0x42a error.o
                0x000000000805bd80                err_getErrorByCode
                0x000000000805bdc0                err_delError
                0x000000000805be40                err_destroyErrorTable
                0x000000000805be80                err_addError
                0x000000000805bf10                err_buildErrorTable
 *fill*         0x000000000805c1aa        0x6 90909090
 .text          0x000000000805c1b0      0x4fb identifier.o
                0x000000000805c1b0                identifier_hash_value
                0x000000000805c1f0                identifier_first
                0x000000000805c210                identifier_next
                0x000000000805c2a0                identifier_init
                0x000000000805c2e0                identifier_line
                0x000000000805c320                identifier_file
                0x000000000805c360                identifier_name
                0x000000000805c3a0                identifier_next_code
                0x000000000805c3b0                identifier_is_basic_type
                0x000000000805c420                identifier_is_type
                0x000000000805c460                identifier_search
                0x000000000805c4f0                identifier_add_as
                0x000000000805c5c0                identifier_add
                0x000000000805c600                identifier_search_or_add
                0x000000000805c630                identifier_dump
 *fill*         0x000000000805c6ab        0x5 90909090
 .text          0x000000000805c6b0      0xc24 main.o
                0x000000000805c6b0                main
 *fill*         0x000000000805d2d4        0xc 90909090
 .text          0x000000000805d2e0      0x125 main_core.o
                0x000000000805d2e0                core_init
 *fill*         0x000000000805d405        0xb 90909090
 .text          0x000000000805d410      0x2d2 procedure.o
                0x000000000805d410                procdef_getid
                0x000000000805d430                procdef_search
                0x000000000805d470                procdef_search_by_codeblock
                0x000000000805d4c0                procdef_get
                0x000000000805d4e0                program_postprocess
                0x000000000805d520                procdef_destroy
                0x000000000805d5b0                procdef_new
 *fill*         0x000000000805d6e2        0xe 90909090
 .text          0x000000000805d6f0      0x6eb segment.o
                0x000000000805d6f0                segment_get
                0x000000000805d700                segment_by_name
                0x000000000805d760                segment_name
                0x000000000805d820                segment_alloc
                0x000000000805d870                segment_add_dword
                0x000000000805d8b0                segment_add_word
                0x000000000805d900                segment_add_byte
                0x000000000805d950                segment_add_as
                0x000000000805d9e0                variable_new
                0x000000000805dad0                segment_new
                0x000000000805dba0                segment_copy
                0x000000000805dc00                segment_add_from
                0x000000000805dc60                segment_duplicate
                0x000000000805dd30                segment_dump
                0x000000000805dd90                segment_destroy
 *fill*         0x000000000805dddb        0x5 90909090
 .text          0x000000000805dde0      0x535 strings.o
                0x000000000805dde0                string_get
                0x000000000805de30                string_alloc
                0x000000000805de90                check_for_valid_pathname
                0x000000000805df00                string_compile
                0x000000000805e140                string_new
                0x000000000805e230                string_dump
                0x000000000805e2a0                string_init
 *fill*         0x000000000805e315        0xb 90909090
 .text          0x000000000805e320      0x2eb sysstub.o
                0x000000000805e320                sysproc_init
                0x000000000805e330                sysproc_name
                0x000000000805e370                sysproc_get
                0x000000000805e480                sysproc_getall
                0x000000000805e4e0                sysproc_add
 *fill*         0x000000000805e60b        0x5 90909090
 .text          0x000000000805e610     0x64ee token.o
                0x000000000805e610                find_define
                0x000000000805e650                token_back
                0x000000000805e7b0                token_dump
                0x000000000805e910                token_init
                0x000000000805ea40                add_simple_define
                0x000000000805eb20                load_file
                0x000000000805ec60                include_file
                0x000000000805f7b0                token_next
                0x00000000080607d0                preprocessor_expand
                0x0000000008061370                preprocessor_jumpto
                0x0000000008061d70                preprocessor
 *fill*         0x0000000008064afe        0x2 90909090
 .text          0x0000000008064b00      0x618 typedef.o
                0x0000000008064b00                typedef_by_name
                0x0000000008064b60                typedef_tcount
                0x0000000008064ba0                typedef_is_equal
                0x0000000008064c40                typedef_name
                0x0000000008064d10                typedef_subsize
                0x0000000008064d90                typedef_size
                0x0000000008064dc0                typedef_enlarge
                0x0000000008064e20                typedef_pointer
                0x0000000008064e70                typedef_reduce
                0x0000000008064ed0                typedef_describe
                0x00000000080650b0                typedef_new
 *fill*         0x0000000008065118        0x8 90909090
 .text          0x0000000008065120      0x4ec varspace.o
                0x0000000008065120                varspace_search
                0x0000000008065170                varspace_alloc
                0x00000000080651c0                varspace_add
                0x0000000008065240                varspace_varstring
                0x00000000080652b0                varspace_init
                0x0000000008065320                varspace_new
                0x0000000008065380                varspace_destroy
                0x00000000080653b0                varspace_dump
 *fill*         0x000000000806560c        0x4 90909090
 .text          0x0000000008065610      0x316 ../../common/debug.o
                0x0000000008065610                mnemonic_dump
 *fill*         0x0000000008065926        0xa 90909090
 .text          0x0000000008065930     0x14b2 ../../common/files.o
                0x0000000008065930                file_fp
                0x0000000008065980                file_eof
                0x00000000080659e0                file_move
                0x00000000080659f0                file_remove
                0x0000000008065a00                file_addp
                0x0000000008065b00                file_close
                0x0000000008065b60                xfile_init
                0x0000000008065b90                file_add_xfile
                0x0000000008065d30                file_open
                0x0000000008066070                file_exists
                0x00000000080660a0                file_rewind
                0x00000000080660f0                file_seek
                0x0000000008066240                file_pos
                0x0000000008066290                file_write
                0x00000000080663b0                file_writeSint32A
                0x00000000080663e0                file_writeUint32A
                0x00000000080663f0                file_writeSint16A
                0x0000000008066420                file_writeUint16A
                0x0000000008066430                file_writeUint8A
                0x0000000008066440                file_writeSint8A
                0x0000000008066450                file_writeSint32
                0x0000000008066480                file_writeUint32
                0x0000000008066490                file_writeSint16
                0x00000000080664c0                file_writeUint16
                0x00000000080664d0                file_writeUint8
                0x0000000008066500                file_writeSint8
                0x0000000008066530                file_puts
                0x0000000008066560                file_qputs
                0x0000000008066660                file_gets
                0x0000000008066840                file_qgets
                0x0000000008066a50                file_read
                0x0000000008066b90                file_size
                0x0000000008066c70                file_readSint32A
                0x0000000008066ca0                file_readUint32A
                0x0000000008066cb0                file_readSint16A
                0x0000000008066ce0                file_readUint16A
                0x0000000008066cf0                file_readUint8A
                0x0000000008066d00                file_readSint8A
                0x0000000008066d10                file_readSint32
                0x0000000008066d40                file_readUint32
                0x0000000008066d50                file_readSint16
                0x0000000008066d80                file_readUint16
                0x0000000008066d90                file_readUint8
                0x0000000008066dc0                file_readSint8
 *fill*         0x0000000008066de2        0xe 90909090
 .text          0x0000000008066df0      0x470 ../../common/xctype.o
                0x0000000008066df0                convert
                0x0000000008066e10                init_c_type
 .text          0x0000000008067260       0x6a /usr/lib/libc_nonshared.a(elf-init.oS)
                0x0000000008067260                __libc_csu_fini
                0x0000000008067270                __libc_csu_init
 .text.__i686.get_pc_thunk.bx
                0x00000000080672ca        0x4 /usr/lib/libc_nonshared.a(elf-init.oS)
                0x00000000080672ca                __i686.get_pc_thunk.bx
 *fill*         0x00000000080672ce        0x2 90909090
 .text          0x00000000080672d0       0x2a /usr/lib/gcc/i486-linux-gnu/4.4.3/crtend.o
 *fill*         0x00000000080672fa        0x2 90909090
 .text          0x00000000080672fc        0x0 /usr/lib/gcc/i486-linux-gnu/4.4.3/../../../../lib/crtn.o
 *(.gnu.warning)

.fini           0x00000000080672fc       0x1c
 *(.fini)
 .fini          0x00000000080672fc       0x13 /usr/lib/gcc/i486-linux-gnu/4.4.3/../../../../lib/crti.o
                0x00000000080672fc                _fini
 .fini          0x000000000806730f        0x5 /usr/lib/gcc/i486-linux-gnu/4.4.3/crtbegin.o
 .fini          0x0000000008067314        0x4 /usr/lib/gcc/i486-linux-gnu/4.4.3/../../../../lib/crtn.o
                0x0000000008067318                PROVIDE (__etext, .)
                0x0000000008067318                PROVIDE (_etext, .)
                0x0000000008067318                PROVIDE (etext, .)

.rodata         0x0000000008067320     0x29cc
 *(.rodata .rodata.* .gnu.linkonce.r.*)
 .rodata        0x0000000008067320        0x4 /usr/lib/gcc/i486-linux-gnu/4.4.3/../../../../lib/crt1.o
                0x0000000008067320                _fp_hw
 .rodata.cst4   0x0000000008067324        0x4 /usr/lib/gcc/i486-linux-gnu/4.4.3/../../../../lib/crt1.o
                0x0000000008067324                _IO_stdin_used
 .rodata.str1.1
                0x0000000008067328      0x2b9 c_code.o
                                        0x2f3 (size before relaxing)
 *fill*         0x00000000080675e1        0x3 00
 .rodata        0x00000000080675e4      0x268 c_code.o
 .rodata.str1.4
                0x000000000806784c      0x135 c_code.o
 .rodata.str1.1
                0x0000000008067981       0x73 c_data.o
                                         0xfd (size before relaxing)
 .rodata.str1.4
                0x00000000080679f4      0x11c c_data.o
 .rodata        0x0000000008067b10       0x11 c_data.o
 .rodata.str1.1
                0x0000000008067b21       0x25 c_debug.o
                                         0x2e (size before relaxing)
 .rodata.str1.1
                0x0000000008067b46      0x9b3 c_main.o
                                        0xb80 (size before relaxing)
 *fill*         0x00000000080684f9        0x3 00
 .rodata.str1.4
                0x00000000080684fc       0xeb c_main.o
                                        0x147 (size before relaxing)
 .rodata.str1.1
                0x00000000080685e7       0x2a codeblock.o
                                         0x3e (size before relaxing)
 *fill*         0x0000000008068611        0x3 00
 .rodata.str1.4
                0x0000000008068614       0x2b codeblock.o
 .rodata.str1.1
                0x000000000806863f       0x41 constants.o
 .rodata.str1.4
                0x0000000008068680       0x40 constants.o
 .rodata.str1.1
                0x00000000080686c0      0x16c dcbw.o
                                        0x172 (size before relaxing)
 .rodata        0x000000000806882c       0x12 dcbw.o
 *fill*         0x000000000806883e        0x2 00
 .rodata.str1.4
                0x0000000008068840      0x166 dcbw.o
 .rodata.str1.1
                0x00000000080689a6        0x5 error.o
                                          0x9 (size before relaxing)
 *fill*         0x00000000080689ab        0x1 00
 .rodata.str1.4
                0x00000000080689ac       0x1f identifier.o
 .rodata.str1.1
                0x00000000080689cb       0x35 identifier.o
 .rodata.str1.4
                0x0000000008068a00      0x4cf main.o
 .rodata.str1.1
                0x0000000008068ecf       0xb3 main.o
                                         0xb4 (size before relaxing)
 .rodata.str1.1
                0x0000000008068f82      0x129 main_core.o
                                        0x134 (size before relaxing)
 *fill*         0x00000000080690ab       0x15 00
 .rodata        0x00000000080690c0      0x194 main_core.o
 .rodata.str1.4
                0x0000000008069254       0xcb main_core.o
 .rodata.str1.1
                0x000000000806931f       0x1c procedure.o
 .rodata.str1.1
                0x000000000806933b       0x7b segment.o
                                         0x99 (size before relaxing)
 *fill*         0x00000000080693b6        0x2 00
 .rodata.str1.4
                0x00000000080693b8       0x86 strings.o
 .rodata.str1.1
                0x000000000806943e       0x54 strings.o
 .rodata        0x0000000008069492        0xb strings.o
 .rodata.str1.1
                0x000000000806949d       0x24 sysstub.o
                                         0x36 (size before relaxing)
 *fill*         0x00000000080694c1        0x3 00
 .rodata.str1.4
                0x00000000080694c4      0x135 token.o
                                        0x195 (size before relaxing)
 .rodata.str1.1
                0x00000000080695f9      0x19f token.o
                                        0x20b (size before relaxing)
 .rodata.cst8   0x0000000008069798        0x8 token.o
 .rodata.cst4   0x00000000080697a0        0x4 token.o
 .rodata.str1.1
                0x00000000080697a4       0x44 typedef.o
                                         0xab (size before relaxing)
 .rodata        0x00000000080697e8       0xa0 typedef.o
 .rodata.str1.4
                0x0000000008069888       0x43 varspace.o
 .rodata.str1.1
                0x00000000080698cb       0x52 varspace.o
                                         0x57 (size before relaxing)
 .rodata.str1.1
                0x000000000806991d      0x268 ../../common/debug.o
                                        0x34a (size before relaxing)
 .rodata.str1.1
                0x0000000008069b85       0x56 ../../common/files.o
                                         0x61 (size before relaxing)
 .rodata        0x0000000008069bdb       0x2d ../../common/files.o
 .rodata.str1.1
                0x0000000008069c08       0x3b ../../common/xctype.o
                                         0x3d (size before relaxing)
 *fill*         0x0000000008069c43        0x1 00
 .rodata.str1.4
                0x0000000008069c44       0xa8 ../../common/xctype.o

.rodata1
 *(.rodata1)

.eh_frame_hdr
 *(.eh_frame_hdr)

.eh_frame       0x0000000008069cec        0x4
 *(.eh_frame)
 .eh_frame      0x0000000008069cec        0x4 /usr/lib/gcc/i486-linux-gnu/4.4.3/crtend.o

.gcc_except_table
 *(.gcc_except_table .gcc_except_table.*)
                0x0000000008069cf0                . = (ALIGN (0x1000) - ((0x1000 - .) & 0xfff))
                0x000000000806aefc                . = (0x1000 DATA_SEGMENT_ALIGN 0x1000)

.eh_frame
 *(.eh_frame)

.gcc_except_table
 *(.gcc_except_table .gcc_except_table.*)

.tdata
 *(.tdata .tdata.* .gnu.linkonce.td.*)

.tbss
 *(.tbss .tbss.* .gnu.linkonce.tb.*)
 *(.tcommon)

.preinit_array  0x000000000806aefc        0x0
                0x000000000806aefc                PROVIDE (__preinit_array_start, .)
 *(.preinit_array)
                0x000000000806aefc                PROVIDE (__preinit_array_end, .)

.init_array     0x000000000806aefc        0x0
                0x000000000806aefc                PROVIDE (__init_array_start, .)
 *(SORT(.init_array.*))
 *(.init_array)
                0x000000000806aefc                PROVIDE (__init_array_end, .)

.fini_array     0x000000000806aefc        0x0
                0x000000000806aefc                PROVIDE (__fini_array_start, .)
 *(.fini_array)
 *(SORT(.fini_array.*))
                0x000000000806aefc                PROVIDE (__fini_array_end, .)

.ctors          0x000000000806aefc        0x8
 *crtbegin.o(.ctors)
 .ctors         0x000000000806aefc        0x4 /usr/lib/gcc/i486-linux-gnu/4.4.3/crtbegin.o
 *crtbegin?.o(.ctors)
 *(EXCLUDE_FILE(*crtend?.o *crtend.o) .ctors)
 *(SORT(.ctors.*))
 *(.ctors)
 .ctors         0x000000000806af00        0x4 /usr/lib/gcc/i486-linux-gnu/4.4.3/crtend.o

.dtors          0x000000000806af04        0x8
 *crtbegin.o(.dtors)
 .dtors         0x000000000806af04        0x4 /usr/lib/gcc/i486-linux-gnu/4.4.3/crtbegin.o
 *crtbegin?.o(.dtors)
 *(EXCLUDE_FILE(*crtend?.o *crtend.o) .dtors)
 *(SORT(.dtors.*))
 *(.dtors)
 .dtors         0x000000000806af08        0x4 /usr/lib/gcc/i486-linux-gnu/4.4.3/crtend.o
                0x000000000806af08                __DTOR_END__

.jcr            0x000000000806af0c        0x4
 *(.jcr)
 .jcr           0x000000000806af0c        0x0 /usr/lib/gcc/i486-linux-gnu/4.4.3/crtbegin.o
 .jcr           0x000000000806af0c        0x4 /usr/lib/gcc/i486-linux-gnu/4.4.3/crtend.o

.data.rel.ro
 *(.data.rel.ro.local* .gnu.linkonce.d.rel.ro.local.*)
 *(.data.rel.ro* .gnu.linkonce.d.rel.ro.*)

.dynamic        0x000000000806af10       0xe0
 *(.dynamic)
 .dynamic       0x000000000806af10       0xe0 /usr/lib/gcc/i486-linux-gnu/4.4.3/../../../../lib/crt1.o
                0x000000000806af10                _DYNAMIC

.got            0x000000000806aff0        0x4
 *(.got)
 .got           0x000000000806aff0        0x4 /usr/lib/gcc/i486-linux-gnu/4.4.3/../../../../lib/crt1.o
 *(.igot)
                0x000000000806aff4                . = (. DATA_SEGMENT_RELRO_END 0xc)

.got.plt        0x000000000806aff4       0xf0
 *(.got.plt)
 .got.plt       0x000000000806aff4       0xf0 /usr/lib/gcc/i486-linux-gnu/4.4.3/../../../../lib/crt1.o
                0x000000000806aff4                _GLOBAL_OFFSET_TABLE_
 *(.igot.plt)
 .igot.plt      0x0000000000000000        0x0 /usr/lib/gcc/i486-linux-gnu/4.4.3/../../../../lib/crt1.o

.data           0x000000000806b100    0x166e0
 *(.data .data.* .gnu.linkonce.d.*)
 .data          0x000000000806b100        0x4 /usr/lib/gcc/i486-linux-gnu/4.4.3/../../../../lib/crt1.o
                0x000000000806b100                data_start
                0x000000000806b100                __data_start
 .data          0x000000000806b104        0x0 /usr/lib/gcc/i486-linux-gnu/4.4.3/../../../../lib/crti.o
 .data          0x000000000806b104        0x4 /usr/lib/gcc/i486-linux-gnu/4.4.3/crtbegin.o
                0x000000000806b104                __dso_handle
 .data          0x000000000806b108        0x4 c_code.o
                0x000000000806b108                reduce_arrays
 .data          0x000000000806b10c        0x0 c_data.o
 .data          0x000000000806b10c        0x0 c_debug.o
 *fill*         0x000000000806b10c       0x14 00
 .data          0x000000000806b120      0xf38 c_main.o
                0x000000000806b120                libjoy_constants_def
                0x000000000806b198                libjoy_modules_dependency
                0x000000000806b1a0                mod_say_functions_exports
                0x000000000806b1e0                mod_string_functions_exports
                0x000000000806b350                mod_math_constants_def
                0x000000000806b380                mod_math_functions_exports
                0x000000000806b4c0                mod_time_functions_exports
                0x000000000806b500                mod_file_constants_def
                0x000000000806b580                mod_file_functions_exports
                0x000000000806b6e0                mod_sound_constants_def
                0x000000000806b720                mod_sound_globals_def
                0x000000000806b780                mod_sound_functions_exports
                0x000000000806b940                mod_joy_functions_exports
                0x000000000806bb50                mod_joy_modules_dependency
                0x000000000806bb60                mod_proc_constants_def
                0x000000000806bc80                mod_proc_locals_def
                0x000000000806bd00                mod_proc_functions_exports
                0x000000000806bdc0                mod_sort_functions_exports
                0x000000000806be20                mod_timers_globals_def
                0x000000000806be2b                mod_regex_globals_def
                0x000000000806be60                mod_regex_functions_exports
                0x000000000806bec0                symbol_list
 .data          0x000000000806c058        0x0 codeblock.o
 .data          0x000000000806c058        0x0 constants.o
 .data          0x000000000806c058        0x0 dcbw.o
 .data          0x000000000806c058        0x0 error.o
 .data          0x000000000806c058        0x4 identifier.o
 .data          0x000000000806c05c        0x4 main.o
                0x000000000806c05c                autodeclare
 .data          0x000000000806c060        0x0 main_core.o
 .data          0x000000000806c060        0x4 procedure.o
                0x000000000806c060                procdef_maxid
 .data          0x000000000806c064        0x0 segment.o
 .data          0x000000000806c064        0x8 strings.o
                0x000000000806c064                validchars
                0x000000000806c068                invalidchars
 *fill*         0x000000000806c06c       0x14 00
 .data          0x000000000806c080    0x15000 sysstub.o
                0x000000000806c080                sysprocs
 .data          0x0000000008081080        0x0 token.o
 .data          0x0000000008081080        0x0 typedef.o
 .data          0x0000000008081080        0x0 varspace.o
 .data          0x0000000008081080      0x4d4 ../../common/debug.o
                0x0000000008081080                mnemonics
 *fill*         0x0000000008081554        0xc 00
 .data          0x0000000008081560       0x80 ../../common/files.o
                0x0000000008081560                possible_paths
 .data          0x00000000080815e0      0x200 ../../common/xctype.o
                0x00000000080815e0                dos_to_win
                0x00000000080816e0                win_to_dos
 .data          0x00000000080817e0        0x0 /usr/lib/libc_nonshared.a(elf-init.oS)
 .data          0x00000000080817e0        0x0 /usr/lib/gcc/i486-linux-gnu/4.4.3/crtend.o
 .data          0x00000000080817e0        0x0 /usr/lib/gcc/i486-linux-gnu/4.4.3/../../../../lib/crtn.o

.data1
 *(.data1)
                0x00000000080817e0                _edata = .
                0x00000000080817e0                PROVIDE (edata, .)
                0x00000000080817e0                __bss_start = .

.bss            0x00000000080817e0   0x1189e0
 *(.dynbss)
 .dynbss        0x00000000080817e0        0x4 /usr/lib/gcc/i486-linux-gnu/4.4.3/../../../../lib/crt1.o
                0x00000000080817e0                stdout@@GLIBC_2.0
 *(.bss .bss.* .gnu.linkonce.b.*)
 .bss           0x00000000080817e4        0x0 /usr/lib/gcc/i486-linux-gnu/4.4.3/../../../../lib/crt1.o
 .bss           0x00000000080817e4        0x0 /usr/lib/gcc/i486-linux-gnu/4.4.3/../../../../lib/crti.o
 .bss           0x00000000080817e4        0x8 /usr/lib/gcc/i486-linux-gnu/4.4.3/crtbegin.o
 .bss           0x00000000080817ec        0x0 c_code.o
 .bss           0x00000000080817ec        0x0 c_data.o
 .bss           0x00000000080817ec        0x0 c_debug.o
 .bss           0x00000000080817ec       0x10 c_main.o
                0x00000000080817ec                nimports_aux
                0x00000000080817f0                nimports
 .bss           0x00000000080817fc        0x0 codeblock.o
 .bss           0x00000000080817fc        0xc constants.o
 .bss           0x0000000008081808       0x1c dcbw.o
                0x0000000008081808                dcb_files
                0x000000000808180c                dcb_ef_alloc
                0x0000000008081810                dcb_filecount
                0x0000000008081814                dcb_fullname
                0x0000000008081818                dcb_options
                0x000000000808181c                dcb_orig_varspace
                0x0000000008081820                dcb_varspaces
 .bss           0x0000000008081824        0x0 error.o
 *fill*         0x0000000008081824       0x1c 00
 .bss           0x0000000008081840      0x120 identifier.o
                0x0000000008081840                identifier_count
 .bss           0x0000000008081960       0x13 main.o
                0x0000000008081960                debug
                0x0000000008081964                main_path
 *fill*         0x0000000008081973        0x1 00
 .bss           0x0000000008081974        0x0 main_core.o
 .bss           0x0000000008081974       0x10 procedure.o
                0x0000000008081974                mainproc
                0x0000000008081978                procdef_count
                0x000000000808197c                procs
                0x0000000008081980                procs_allocated
 *fill*         0x0000000008081984       0x1c 00
 .bss           0x00000000080819a0     0x1020 segment.o
 .bss           0x00000000080829c0       0x20 strings.o
                0x00000000080829c0                string_mem
                0x00000000080829c4                string_allocated
                0x00000000080829c8                string_used
                0x00000000080829cc                string_offset
                0x00000000080829d0                string_max
                0x00000000080829d4                string_count
                0x00000000080829d8                autoinclude
                0x00000000080829dc                no_include_this_file
 .bss           0x00000000080829e0       0x14 sysstub.o
                0x00000000080829e0                sysproc_list
                0x00000000080829e4                sysproc_maxid
 *fill*         0x00000000080829f4        0xc 00
 .bss           0x0000000008082a00    0x1189c token.o
                0x0000000008082a00                line_count
                0x0000000008082a04                current_file
                0x0000000008082a08                n_files
 .bss           0x000000000809429c       0x10 typedef.o
 .bss           0x00000000080942ac        0x0 varspace.o
 .bss           0x00000000080942ac        0x4 ../../common/debug.o
 .bss           0x00000000080942b0       0x10 ../../common/files.o
                0x00000000080942b0                opened_files
                0x00000000080942b4                x_file
                0x00000000080942b8                max_x_files
                0x00000000080942bc                x_files_count
 .bss           0x00000000080942c0        0x8 ../../common/xctype.o
                0x00000000080942c0                dos_chars
                0x00000000080942c4                c_type_initialized
 .bss           0x00000000080942c8        0x0 /usr/lib/libc_nonshared.a(elf-init.oS)
 .bss           0x00000000080942c8        0x0 /usr/lib/gcc/i486-linux-gnu/4.4.3/crtend.o
 .bss           0x00000000080942c8        0x0 /usr/lib/gcc/i486-linux-gnu/4.4.3/../../../../lib/crtn.o
 *(COMMON)
 COMMON         0x00000000080942c8        0x8 c_code.o
                0x00000000080942c8                code
                0x00000000080942cc                proc
 *fill*         0x00000000080942d0       0x10 00
 COMMON         0x00000000080942e0     0x11d8 c_main.o
                0x00000000080942e0                identifier_end
                0x00000000080942e4                identifier_eq
                0x00000000080942e8                identifier_rolequal
                0x00000000080942ec                identifier_twopoints
                0x00000000080942f0                identifier_unsigned
                0x00000000080942f4                identifier_include
                0x00000000080942f8                identifier_not
                0x00000000080942fc                reserved_words
                0x0000000008094300                identifier_leftb
                0x0000000008094320                imports
                0x0000000008094b20                identifier_type
                0x0000000008094b24                identifier_rightb
                0x0000000008094b28                identifier_lte
                0x0000000008094b2c                identifier_function
                0x0000000008094b30                identifier_bxor
                0x0000000008094b34                identifier_multiply
                0x0000000008094b38                identifier_equal
                0x0000000008094b3c                identifier_word
                0x0000000008094b40                identifier_struct
                0x0000000008094b44                identifier_divequal
                0x0000000008094b48                identifier_from
                0x0000000008094b4c                identifier_band
                0x0000000008094b50                identifier_minusequal
                0x0000000008094b54                identifier_string
                0x0000000008094b58                identifier_onexit
                0x0000000008094b5c                identifier_debug
                0x0000000008094b60                identifier_ne
                0x0000000008094b64                identifier_divide
                0x0000000008094b68                identifier_xor
                0x0000000008094b80                imports_aux
                0x0000000008095380                identifier_dword
                0x0000000008095384                identifier_point
                0x0000000008095388                identifier_ror
                0x000000000809538c                identifier_plusplus
                0x0000000008095390                identifier_float
                0x0000000008095394                identifier_gte
                0x0000000008095398                identifier_error
                0x000000000809539c                identifier_minusminus
                0x00000000080953a0                identifier_rightp
                0x00000000080953a4                identifier_short
                0x00000000080953a8                identifier_multequal
                0x00000000080953ac                identifier_char
                0x00000000080953b0                identifier_for
                0x00000000080953b4                identifier_const
                0x00000000080953b8                identifier_rorequal
                0x00000000080953bc                identifier_clone
                0x00000000080953c0                identifier_jmp
                0x00000000080953c4                identifier_loop
                0x00000000080953c8                identifier_begin
                0x00000000080953cc                identifier_local
                0x00000000080953d0                identifier_question
                0x00000000080953d4                identifier_sizeof
                0x00000000080953d8                identifier_bor
                0x00000000080953dc                identifier_bnot
                0x00000000080953e0                identifier_comma
                0x00000000080953e4                identifier_call
                0x00000000080953e8                identifier_return
                0x00000000080953ec                identifier_plusequal
                0x00000000080953f0                identifier_elseif
                0x00000000080953f4                identifier_repeat
                0x00000000080953f8                identifier_exit
                0x00000000080953fc                identifier_plus
                0x0000000008095400                identifier_semicolon
                0x0000000008095404                identifier_leftp
                0x0000000008095408                identifier_bandoffset
                0x000000000809540c                identifier_while
                0x0000000008095410                identifier_step
                0x0000000008095414                identifier_continue
                0x0000000008095418                identifier_offset
                0x000000000809541c                identifier_until
                0x0000000008095420                identifier_signed
                0x0000000008095424                identifier_dup
                0x0000000008095428                identifier_to
                0x000000000809542c                identifier_minus
                0x0000000008095430                identifier_frame
                0x0000000008095434                identifier_yield
                0x0000000008095438                identifier_private
                0x000000000809543c                identifier_default
                0x0000000008095440                identifier_public
                0x0000000008095444                identifier_mod
                0x0000000008095448                identifier_mouse
                0x000000000809544c                identifier_switch
                0x0000000008095450                identifier_rol
                0x0000000008095454                identifier_onerror
                0x0000000008095458                identifier_break
                0x000000000809545c                identifier_andequal
                0x0000000008095460                identifier_byte
                0x0000000008095464                identifier_resume
                0x0000000008095468                identifier_gt
                0x000000000809546c                identifier_or
                0x0000000008095470                identifier_process
                0x0000000008095474                identifier_declare
                0x0000000008095478                identifier_xorequal
                0x000000000809547c                identifier_if
                0x0000000008095480                identifier_pointer
                0x0000000008095484                identifier_on
                0x0000000008095488                identifier_else
                0x000000000809548c                identifier_and
                0x0000000008095490                identifier_int
                0x0000000008095494                identifier_global
                0x0000000008095498                identifier_orequal
                0x000000000809549c                identifier_colon
                0x00000000080954a0                identifier_lt
                0x00000000080954a4                identifier_program
                0x00000000080954a8                identifier_stm_next
                0x00000000080954ac                identifier_import
                0x00000000080954b0                identifier_modequal
                0x00000000080954b4                identifier_case
 *fill*         0x00000000080954b8        0x8 00
 COMMON         0x00000000080954c0       0xb8 dcbw.o
                0x00000000080954c0                dcb
 *fill*         0x0000000008095578        0x8 00
 COMMON         0x0000000008095580       0x50 error.o
                0x0000000008095580                errtable
 *fill*         0x00000000080955d0       0x10 00
 COMMON         0x00000000080955e0       0x40 main.o
                0x00000000080955e0                langinfo
 COMMON         0x0000000008095620        0x8 segment.o
                0x0000000008095620                globaldata
                0x0000000008095624                localdata
 *fill*         0x0000000008095628       0x18 00
 COMMON         0x0000000008095640   0x104040 token.o
                0x0000000008095640                token_prev
                0x0000000008095654                token
                0x0000000008095668                token_saved
                0x0000000008095680                files
 COMMON         0x0000000008199680       0x40 varspace.o
                0x0000000008199680                global
                0x00000000081996a0                local
 COMMON         0x00000000081996c0      0x800 ../../common/debug.o
                0x00000000081996c0                mnemonics_sorted
 COMMON         0x0000000008199ec0      0x300 ../../common/xctype.o
                0x0000000008199ec0                c_upper
                0x0000000008199fc0                c_type
                0x000000000819a0c0                c_lower
                0x000000000819a1c0                . = ALIGN ((. != 0x0)?0x4:0x1)
                0x000000000819a1c0                . = ALIGN (0x4)
                0x000000000819a1c0                . = ALIGN (0x4)
                0x000000000819a1c0                _end = .
                0x000000000819a1c0                PROVIDE (end, .)
                0x000000000819a1c0                . = DATA_SEGMENT_END (.)

.stab
 *(.stab)

.stabstr
 *(.stabstr)

.stab.excl
 *(.stab.excl)

.stab.exclstr
 *(.stab.exclstr)

.stab.index
 *(.stab.index)

.stab.indexstr
 *(.stab.indexstr)

.comment        0x0000000000000000       0x23
 *(.comment)
 .comment       0x0000000000000000       0x23 /usr/lib/gcc/i486-linux-gnu/4.4.3/crtbegin.o
                                         0x24 (size before relaxing)
 .comment       0x0000000000000000       0x24 c_code.o
 .comment       0x0000000000000000       0x24 c_data.o
 .comment       0x0000000000000000       0x24 c_debug.o
 .comment       0x0000000000000000       0x24 c_main.o
 .comment       0x0000000000000000       0x24 codeblock.o
 .comment       0x0000000000000000       0x24 constants.o
 .comment       0x0000000000000000       0x24 dcbw.o
 .comment       0x0000000000000000       0x24 error.o
 .comment       0x0000000000000000       0x24 identifier.o
 .comment       0x0000000000000000       0x24 main.o
 .comment       0x0000000000000000       0x24 main_core.o
 .comment       0x0000000000000000       0x24 procedure.o
 .comment       0x0000000000000000       0x24 segment.o
 .comment       0x0000000000000000       0x24 strings.o
 .comment       0x0000000000000000       0x24 sysstub.o
 .comment       0x0000000000000000       0x24 token.o
 .comment       0x0000000000000000       0x24 typedef.o
 .comment       0x0000000000000000       0x24 varspace.o
 .comment       0x0000000000000000       0x24 ../../common/debug.o
 .comment       0x0000000000000000       0x24 ../../common/files.o
 .comment       0x0000000000000000       0x24 ../../common/xctype.o
 .comment       0x0000000000000000       0x24 /usr/lib/libc_nonshared.a(elf-init.oS)
 .comment       0x0000000000000000       0x24 /usr/lib/gcc/i486-linux-gnu/4.4.3/crtend.o

.debug
 *(.debug)

.line
 *(.line)

.debug_srcinfo
 *(.debug_srcinfo)

.debug_sfnames
 *(.debug_sfnames)

.debug_aranges  0x0000000000000000      0x2a0
 *(.debug_aranges)
 .debug_aranges
                0x0000000000000000       0x20 c_code.o
 .debug_aranges
                0x0000000000000020       0x20 c_data.o
 .debug_aranges
                0x0000000000000040       0x20 c_debug.o
 .debug_aranges
                0x0000000000000060       0x20 c_main.o
 .debug_aranges
                0x0000000000000080       0x20 codeblock.o
 .debug_aranges
                0x00000000000000a0       0x20 constants.o
 .debug_aranges
                0x00000000000000c0       0x20 dcbw.o
 .debug_aranges
                0x00000000000000e0       0x20 error.o
 .debug_aranges
                0x0000000000000100       0x20 identifier.o
 .debug_aranges
                0x0000000000000120       0x20 main.o
 .debug_aranges
                0x0000000000000140       0x20 main_core.o
 .debug_aranges
                0x0000000000000160       0x20 procedure.o
 .debug_aranges
                0x0000000000000180       0x20 segment.o
 .debug_aranges
                0x00000000000001a0       0x20 strings.o
 .debug_aranges
                0x00000000000001c0       0x20 sysstub.o
 .debug_aranges
                0x00000000000001e0       0x20 token.o
 .debug_aranges
                0x0000000000000200       0x20 typedef.o
 .debug_aranges
                0x0000000000000220       0x20 varspace.o
 .debug_aranges
                0x0000000000000240       0x20 ../../common/debug.o
 .debug_aranges
                0x0000000000000260       0x20 ../../common/files.o
 .debug_aranges
                0x0000000000000280       0x20 ../../common/xctype.o

.debug_pubnames
                0x0000000000000000     0x1f7e
 *(.debug_pubnames)
 .debug_pubnames
                0x0000000000000000      0x26a c_code.o
 .debug_pubnames
                0x000000000000026a       0x56 c_data.o
 .debug_pubnames
                0x00000000000002c0       0x25 c_debug.o
 .debug_pubnames
                0x00000000000002e5      0xc48 c_main.o
 .debug_pubnames
                0x0000000000000f2d      0x159 codeblock.o
 .debug_pubnames
                0x0000000000001086       0x73 constants.o
 .debug_pubnames
                0x00000000000010f9       0xd7 dcbw.o
 .debug_pubnames
                0x00000000000011d0       0x8a error.o
 .debug_pubnames
                0x000000000000125a      0x177 identifier.o
 .debug_pubnames
                0x00000000000013d1       0x50 main.o
 .debug_pubnames
                0x0000000000001421       0x20 main_core.o
 .debug_pubnames
                0x0000000000001441       0xf2 procedure.o
 .debug_pubnames
                0x0000000000001533      0x14b segment.o
 .debug_pubnames
                0x000000000000167e      0x140 strings.o
 .debug_pubnames
                0x00000000000017be       0x97 sysstub.o
 .debug_pubnames
                0x0000000000001855      0x133 token.o
 .debug_pubnames
                0x0000000000001988       0xe4 typedef.o
 .debug_pubnames
                0x0000000000001a6c       0xc0 varspace.o
 .debug_pubnames
                0x0000000000001b2c       0x47 ../../common/debug.o
 .debug_pubnames
                0x0000000000001b73      0x377 ../../common/files.o
 .debug_pubnames
                0x0000000000001eea       0x94 ../../common/xctype.o

.debug_info     0x0000000000000000    0x11135
 *(.debug_info .gnu.linkonce.wi.*)
 .debug_info    0x0000000000000000     0x2343 c_code.o
 .debug_info    0x0000000000002343      0xfae c_data.o
 .debug_info    0x00000000000032f1      0x566 c_debug.o
 .debug_info    0x0000000000003857     0x1f7f c_main.o
 .debug_info    0x00000000000057d6      0xd61 codeblock.o
 .debug_info    0x0000000000006537      0x77b constants.o
 .debug_info    0x0000000000006cb2     0x18df dcbw.o
 .debug_info    0x0000000000008591      0x704 error.o
 .debug_info    0x0000000000008c95      0x914 identifier.o
 .debug_info    0x00000000000095a9     0x10b7 main.o
 .debug_info    0x000000000000a660      0x5ea main_core.o
 .debug_info    0x000000000000ac4a      0x9a9 procedure.o
 .debug_info    0x000000000000b5f3      0x9d5 segment.o
 .debug_info    0x000000000000bfc8      0x698 strings.o
 .debug_info    0x000000000000c660      0x592 sysstub.o
 .debug_info    0x000000000000cbf2     0x117b token.o
 .debug_info    0x000000000000dd6d      0x9a4 typedef.o
 .debug_info    0x000000000000e711      0x78e varspace.o
 .debug_info    0x000000000000ee9f      0x5c9 ../../common/debug.o
 .debug_info    0x000000000000f468     0x1583 ../../common/files.o
 .debug_info    0x00000000000109eb      0x74a ../../common/xctype.o

.debug_abbrev   0x0000000000000000     0x2ebe
 *(.debug_abbrev)
 .debug_abbrev  0x0000000000000000      0x32a c_code.o
 .debug_abbrev  0x000000000000032a      0x298 c_data.o
 .debug_abbrev  0x00000000000005c2      0x155 c_debug.o
 .debug_abbrev  0x0000000000000717      0x328 c_main.o
 .debug_abbrev  0x0000000000000a3f      0x29a codeblock.o
 .debug_abbrev  0x0000000000000cd9      0x1f3 constants.o
 .debug_abbrev  0x0000000000000ecc      0x2e9 dcbw.o
 .debug_abbrev  0x00000000000011b5      0x204 error.o
 .debug_abbrev  0x00000000000013b9      0x253 identifier.o
 .debug_abbrev  0x000000000000160c      0x29e main.o
 .debug_abbrev  0x00000000000018aa      0x122 main_core.o
 .debug_abbrev  0x00000000000019cc      0x1e6 procedure.o
 .debug_abbrev  0x0000000000001bb2      0x207 segment.o
 .debug_abbrev  0x0000000000001db9      0x1c7 strings.o
 .debug_abbrev  0x0000000000001f80      0x17f sysstub.o
 .debug_abbrev  0x00000000000020ff      0x336 token.o
 .debug_abbrev  0x0000000000002435      0x1ee typedef.o
 .debug_abbrev  0x0000000000002623      0x1ed varspace.o
 .debug_abbrev  0x0000000000002810      0x19e ../../common/debug.o
 .debug_abbrev  0x00000000000029ae      0x35f ../../common/files.o
 .debug_abbrev  0x0000000000002d0d      0x1b1 ../../common/xctype.o

.debug_line     0x0000000000000000     0x64fa
 *(.debug_line)
 .debug_line    0x0000000000000000     0x18ce c_code.o
 .debug_line    0x00000000000018ce      0x673 c_data.o
 .debug_line    0x0000000000001f41      0x19b c_debug.o
 .debug_line    0x00000000000020dc      0xd84 c_main.o
 .debug_line    0x0000000000002e60      0x394 codeblock.o
 .debug_line    0x00000000000031f4      0x20f constants.o
 .debug_line    0x0000000000003403      0x55f dcbw.o
 .debug_line    0x0000000000003962      0x266 error.o
 .debug_line    0x0000000000003bc8      0x25b identifier.o
 .debug_line    0x0000000000003e23      0x43c main.o
 .debug_line    0x000000000000425f      0x187 main_core.o
 .debug_line    0x00000000000043e6      0x214 procedure.o
 .debug_line    0x00000000000045fa      0x2f4 segment.o
 .debug_line    0x00000000000048ee      0x26d strings.o
 .debug_line    0x0000000000004b5b      0x1f0 sysstub.o
 .debug_line    0x0000000000004d4b      0xa23 token.o
 .debug_line    0x000000000000576e      0x321 typedef.o
 .debug_line    0x0000000000005a8f      0x253 varspace.o
 .debug_line    0x0000000000005ce2      0x16e ../../common/debug.o
 .debug_line    0x0000000000005e50      0x50e ../../common/files.o
 .debug_line    0x000000000000635e      0x19c ../../common/xctype.o

.debug_frame    0x0000000000000000     0x1980
 *(.debug_frame)
 .debug_frame   0x0000000000000000      0x3e8 c_code.o
 .debug_frame   0x00000000000003e8       0x74 c_data.o
 .debug_frame   0x000000000000045c       0x34 c_debug.o
 .debug_frame   0x0000000000000490      0x184 c_main.o
 .debug_frame   0x0000000000000614      0x1e8 codeblock.o
 .debug_frame   0x00000000000007fc       0xa8 constants.o
 .debug_frame   0x00000000000008a4       0xac dcbw.o
 .debug_frame   0x0000000000000950       0xa8 error.o
 .debug_frame   0x00000000000009f8      0x1ac identifier.o
 .debug_frame   0x0000000000000ba4       0x44 main.o
 .debug_frame   0x0000000000000be8       0x34 main_core.o
 .debug_frame   0x0000000000000c1c       0xdc procedure.o
 .debug_frame   0x0000000000000cf8      0x1e4 segment.o
 .debug_frame   0x0000000000000edc       0xd8 strings.o
 .debug_frame   0x0000000000000fb4       0xa0 sysstub.o
 .debug_frame   0x0000000000001054      0x17c token.o
 .debug_frame   0x00000000000011d0      0x17c typedef.o
 .debug_frame   0x000000000000134c      0x100 varspace.o
 .debug_frame   0x000000000000144c       0x34 ../../common/debug.o
 .debug_frame   0x0000000000001480      0x4b4 ../../common/files.o
 .debug_frame   0x0000000000001934       0x4c ../../common/xctype.o

.debug_str      0x0000000000000000     0x2d60
 *(.debug_str)
 .debug_str     0x0000000000000000      0xf25 c_code.o
                                       0x1133 (size before relaxing)
 .debug_str     0x0000000000000f25      0x1a9 c_data.o
                                        0x8d0 (size before relaxing)
 .debug_str     0x00000000000010ce       0x50 c_debug.o
                                        0x339 (size before relaxing)
 .debug_str     0x000000000000111e      0x5aa c_main.o
                                       0x1287 (size before relaxing)
 .debug_str     0x00000000000016c8      0x17d codeblock.o
                                        0x70f (size before relaxing)
 .debug_str     0x0000000000001845       0xaa constants.o
                                        0x494 (size before relaxing)
 .debug_str     0x00000000000018ef      0x470 dcbw.o
                                        0xada (size before relaxing)
 .debug_str     0x0000000000001d5f       0xbf error.o
                                        0x368 (size before relaxing)
 .debug_str     0x0000000000001e1e      0x170 identifier.o
                                        0x4df (size before relaxing)
 .debug_str     0x0000000000001f8e      0x131 main.o
                                        0x7e5 (size before relaxing)
 .debug_str     0x00000000000020bf       0x45 main_core.o
                                        0x430 (size before relaxing)
 .debug_str     0x0000000000002104       0xce procedure.o
                                        0x5f7 (size before relaxing)
 .debug_str     0x00000000000021d2      0x191 segment.o
                                        0x5a2 (size before relaxing)
 .debug_str     0x0000000000002363       0xcf strings.o
                                        0x3d3 (size before relaxing)
 .debug_str     0x0000000000002432       0xb8 sysstub.o
                                        0x3d4 (size before relaxing)
 .debug_str     0x00000000000024ea      0x29d token.o
                                        0x7e6 (size before relaxing)
 .debug_str     0x0000000000002787       0xeb typedef.o
                                        0x4ca (size before relaxing)
 .debug_str     0x0000000000002872       0xba varspace.o
                                        0x464 (size before relaxing)
 .debug_str     0x000000000000292c       0x80 ../../common/debug.o
                                        0x2d3 (size before relaxing)
 .debug_str     0x00000000000029ac      0x31a ../../common/files.o
                                        0x645 (size before relaxing)
 .debug_str     0x0000000000002cc6       0x9a ../../common/xctype.o
                                        0x33e (size before relaxing)

.debug_loc      0x0000000000000000     0xa2fd
 *(.debug_loc)
 .debug_loc     0x0000000000000000     0x23fe c_code.o
 .debug_loc     0x00000000000023fe     0x11c0 c_data.o
 .debug_loc     0x00000000000035be       0xfe c_debug.o
 .debug_loc     0x00000000000036bc      0xa6f c_main.o
 .debug_loc     0x000000000000412b      0x7d4 codeblock.o
 .debug_loc     0x00000000000048ff      0x21d constants.o
 .debug_loc     0x0000000000004b1c      0x7d1 dcbw.o
 .debug_loc     0x00000000000052ed      0x2fa error.o
 .debug_loc     0x00000000000055e7      0x651 identifier.o
 .debug_loc     0x0000000000005c38      0x5ec main.o
 .debug_loc     0x0000000000006224       0x3f main_core.o
 .debug_loc     0x0000000000006263      0x23c procedure.o
 .debug_loc     0x000000000000649f      0x6bd segment.o
 .debug_loc     0x0000000000006b5c      0x2ce strings.o
 .debug_loc     0x0000000000006e2a      0x259 sysstub.o
 .debug_loc     0x0000000000007083     0x10be token.o
 .debug_loc     0x0000000000008141      0x312 typedef.o
 .debug_loc     0x0000000000008453      0x372 varspace.o
 .debug_loc     0x00000000000087c5       0xc2 ../../common/debug.o
 .debug_loc     0x0000000000008887     0x1705 ../../common/files.o
 .debug_loc     0x0000000000009f8c      0x371 ../../common/xctype.o

.debug_macinfo
 *(.debug_macinfo)

.debug_weaknames
 *(.debug_weaknames)

.debug_funcnames
 *(.debug_funcnames)

.debug_typenames
 *(.debug_typenames)

.debug_varnames
 *(.debug_varnames)

.debug_pubtypes
 *(.debug_pubtypes)

.debug_ranges   0x0000000000000000      0xd18
 *(.debug_ranges)
 .debug_ranges  0x0000000000000000      0x380 c_code.o
 .debug_ranges  0x0000000000000380      0x178 c_data.o
 .debug_ranges  0x00000000000004f8       0x30 c_debug.o
 .debug_ranges  0x0000000000000528       0x90 c_main.o
 .debug_ranges  0x00000000000005b8       0x18 codeblock.o
 .debug_ranges  0x00000000000005d0       0x58 constants.o
 .debug_ranges  0x0000000000000628       0xc8 dcbw.o
 .debug_ranges  0x00000000000006f0       0x88 identifier.o
 .debug_ranges  0x0000000000000778       0xc0 main.o
 .debug_ranges  0x0000000000000838       0x18 segment.o
 .debug_ranges  0x0000000000000850       0x18 strings.o
 .debug_ranges  0x0000000000000868      0x298 token.o
 .debug_ranges  0x0000000000000b00       0x88 typedef.o
 .debug_ranges  0x0000000000000b88       0x20 varspace.o
 .debug_ranges  0x0000000000000ba8       0x18 ../../common/debug.o
 .debug_ranges  0x0000000000000bc0       0x60 ../../common/files.o
 .debug_ranges  0x0000000000000c20       0xf8 ../../common/xctype.o

.gnu.attributes
 *(.gnu.attributes)

/DISCARD/
 *(.note.GNU-stack)
 *(.gnu_debuglink)
 *(.gnu.lto_*)
OUTPUT(/home/joseba/cvs/bennugd/console/core/bgdc/bgdc.elf elf32-i386)
